target datalayout = "e-m:e-p270:32:32-p271:32:32-p272:64:64-i64:64-i128:128-f80:128-n8:16:32:64-S128"
target triple = "x86_64-pc-linux-gnu"

%struct.OSSL_HPKE_SUITE = type { i16, i16, i16 }

@testctx = internal global ptr null, align 8
@.str.31 = private unnamed_addr constant [28 x i8] c"../openssl/test/hpke_test.c\00", align 1
@__const.test_hpke_random_suites.def_suite = private unnamed_addr constant %struct.OSSL_HPKE_SUITE { i16 32, i16 1, i16 1 }, align 2
@__const.test_hpke_random_suites.suite = private unnamed_addr constant %struct.OSSL_HPKE_SUITE { i16 32, i16 1, i16 1 }, align 2
@__const.test_hpke_random_suites.suite2 = private unnamed_addr constant %struct.OSSL_HPKE_SUITE { i16 -255, i16 -254, i16 -253 }, align 2
@.str.190 = private unnamed_addr constant [75 x i8] c"OSSL_HPKE_get_grease_value(NULL, NULL, NULL, NULL, NULL, 0, testctx, NULL)\00", align 1
@.str.191 = private unnamed_addr constant [88 x i8] c"OSSL_HPKE_get_grease_value(&def_suite, &suite2, enc, &enclen, ct, ctlen, testctx, NULL)\00", align 1
@.str.192 = private unnamed_addr constant [82 x i8] c"OSSL_HPKE_get_grease_value(NULL, &suite2, enc, &enclen, ct, ctlen, testctx, NULL)\00", align 1
@.str.193 = private unnamed_addr constant [84 x i8] c"OSSL_HPKE_get_grease_value(&suite, &suite2, enc, &enclen, ct, ctlen, testctx, NULL)\00", align 1

; Function Attrs: nounwind uwtable
define internal i32 @test_hpke_random_suites() #0 {
  %1 = alloca i32, align 4
  %2 = alloca %struct.OSSL_HPKE_SUITE, align 2
  %3 = alloca %struct.OSSL_HPKE_SUITE, align 2
  %4 = alloca %struct.OSSL_HPKE_SUITE, align 2
  %5 = alloca [200 x i8], align 16
  %6 = alloca i64, align 8
  %7 = alloca [500 x i8], align 16
  %8 = alloca i64, align 8
  %9 = alloca i32, align 4
  call void @llvm.lifetime.start.p0(i64 6, ptr %2) #7
  call void @llvm.memcpy.p0.p0.i64(ptr align 2 %2, ptr align 2 @__const.test_hpke_random_suites.def_suite, i64 6, i1 false)
  call void @llvm.lifetime.start.p0(i64 6, ptr %3) #7
  call void @llvm.memcpy.p0.p0.i64(ptr align 2 %3, ptr align 2 @__const.test_hpke_random_suites.suite, i64 6, i1 false)
  call void @llvm.lifetime.start.p0(i64 6, ptr %4) #7
  call void @llvm.memcpy.p0.p0.i64(ptr align 2 %4, ptr align 2 @__const.test_hpke_random_suites.suite2, i64 6, i1 false)
  call void @llvm.lifetime.start.p0(i64 200, ptr %5) #7
  call void @llvm.lifetime.start.p0(i64 8, ptr %6) #7
  store i64 200, ptr %6, align 8, !tbaa !13
  call void @llvm.lifetime.start.p0(i64 500, ptr %7) #7
  call void @llvm.lifetime.start.p0(i64 8, ptr %8) #7
  store i64 500, ptr %8, align 8, !tbaa !13
  %10 = load ptr, ptr @testctx, align 8, !tbaa !19
  %11 = call i32 @OSSL_HPKE_get_grease_value(ptr noundef null, ptr noundef null, ptr noundef null, ptr noundef null, ptr noundef null, i64 noundef 0, ptr noundef %10, ptr noundef null)
  %12 = icmp ne i32 %11, 0
  %13 = zext i1 %12 to i32
  %14 = call i32 @test_false(ptr noundef @.str.31, i32 noundef 1658, ptr noundef @.str.190, i32 noundef %13)
  %15 = icmp ne i32 %14, 0
  br i1 %15, label %17, label %16

16:                                               ; preds = %0
  store i32 0, ptr %1, align 4
  store i32 1, ptr %9, align 4
  br label %117

17:                                               ; preds = %0
  store i64 10, ptr %6, align 8, !tbaa !13
  %18 = getelementptr inbounds [200 x i8], ptr %5, i64 0, i64 0
  %19 = getelementptr inbounds [500 x i8], ptr %7, i64 0, i64 0
  %20 = load i64, ptr %8, align 8, !tbaa !13
  %21 = load ptr, ptr @testctx, align 8, !tbaa !19
  %22 = call i32 @OSSL_HPKE_get_grease_value(ptr noundef %2, ptr noundef %4, ptr noundef %18, ptr noundef %6, ptr noundef %19, i64 noundef %20, ptr noundef %21, ptr noundef null)
  %23 = icmp ne i32 %22, 0
  %24 = zext i1 %23 to i32
  %25 = call i32 @test_false(ptr noundef @.str.31, i32 noundef 1663, ptr noundef @.str.191, i32 noundef %24)
  %26 = icmp ne i32 %25, 0
  br i1 %26, label %28, label %27

27:                                               ; preds = %17
  store i32 0, ptr %1, align 4
  store i32 1, ptr %9, align 4
  br label %117

28:                                               ; preds = %17
  store i64 200, ptr %6, align 8, !tbaa !13
  %29 = getelementptr inbounds [200 x i8], ptr %5, i64 0, i64 0
  %30 = getelementptr inbounds [500 x i8], ptr %7, i64 0, i64 0
  %31 = load i64, ptr %8, align 8, !tbaa !13
  %32 = load ptr, ptr @testctx, align 8, !tbaa !19
  %33 = call i32 @OSSL_HPKE_get_grease_value(ptr noundef %2, ptr noundef %4, ptr noundef %29, ptr noundef %6, ptr noundef %30, i64 noundef %31, ptr noundef %32, ptr noundef null)
  %34 = icmp ne i32 %33, 0
  %35 = zext i1 %34 to i32
  %36 = call i32 @test_true(ptr noundef @.str.31, i32 noundef 1670, ptr noundef @.str.191, i32 noundef %35)
  %37 = icmp ne i32 %36, 0
  br i1 %37, label %39, label %38

38:                                               ; preds = %28
  store i32 0, ptr %1, align 4
  store i32 1, ptr %9, align 4
  br label %117

39:                                               ; preds = %28
  store i64 200, ptr %6, align 8, !tbaa !13
  %40 = getelementptr inbounds [200 x i8], ptr %5, i64 0, i64 0
  %41 = getelementptr inbounds [500 x i8], ptr %7, i64 0, i64 0
  %42 = load i64, ptr %8, align 8, !tbaa !13
  %43 = load ptr, ptr @testctx, align 8, !tbaa !19
  %44 = call i32 @OSSL_HPKE_get_grease_value(ptr noundef null, ptr noundef %4, ptr noundef %40, ptr noundef %6, ptr noundef %41, i64 noundef %42, ptr noundef %43, ptr noundef null)
  %45 = icmp ne i32 %44, 0
  %46 = zext i1 %45 to i32
  %47 = call i32 @test_true(ptr noundef @.str.31, i32 noundef 1677, ptr noundef @.str.192, i32 noundef %46)
  %48 = icmp ne i32 %47, 0
  br i1 %48, label %50, label %49

49:                                               ; preds = %39
  store i32 0, ptr %1, align 4
  store i32 1, ptr %9, align 4
  br label %117

50:                                               ; preds = %39
  store i64 200, ptr %6, align 8, !tbaa !13
  %51 = getelementptr inbounds nuw %struct.OSSL_HPKE_SUITE, ptr %3, i32 0, i32 0
  store i16 18, ptr %51, align 2, !tbaa !24
  %52 = getelementptr inbounds [200 x i8], ptr %5, i64 0, i64 0
  %53 = getelementptr inbounds [500 x i8], ptr %7, i64 0, i64 0
  %54 = load i64, ptr %8, align 8, !tbaa !13
  %55 = load ptr, ptr @testctx, align 8, !tbaa !19
  %56 = call i32 @OSSL_HPKE_get_grease_value(ptr noundef %3, ptr noundef %4, ptr noundef %52, ptr noundef %6, ptr noundef %53, i64 noundef %54, ptr noundef %55, ptr noundef null)
  %57 = icmp ne i32 %56, 0
  %58 = zext i1 %57 to i32
  %59 = call i32 @test_true(ptr noundef @.str.31, i32 noundef 1684, ptr noundef @.str.193, i32 noundef %58)
  %60 = icmp ne i32 %59, 0
  br i1 %60, label %62, label %61

61:                                               ; preds = %50
  store i32 0, ptr %1, align 4
  store i32 1, ptr %9, align 4
  br label %117

62:                                               ; preds = %50
  store i64 200, ptr %6, align 8, !tbaa !13
  store i64 2, ptr %8, align 8, !tbaa !13
  %63 = getelementptr inbounds [200 x i8], ptr %5, i64 0, i64 0
  %64 = getelementptr inbounds [500 x i8], ptr %7, i64 0, i64 0
  %65 = load i64, ptr %8, align 8, !tbaa !13
  %66 = load ptr, ptr @testctx, align 8, !tbaa !19
  %67 = call i32 @OSSL_HPKE_get_grease_value(ptr noundef null, ptr noundef %4, ptr noundef %63, ptr noundef %6, ptr noundef %64, i64 noundef %65, ptr noundef %66, ptr noundef null)
  %68 = icmp ne i32 %67, 0
  %69 = zext i1 %68 to i32
  %70 = call i32 @test_false(ptr noundef @.str.31, i32 noundef 1690, ptr noundef @.str.192, i32 noundef %69)
  %71 = icmp ne i32 %70, 0
  br i1 %71, label %73, label %72

72:                                               ; preds = %62
  store i32 0, ptr %1, align 4
  store i32 1, ptr %9, align 4
  br label %117

73:                                               ; preds = %62
  store i64 500, ptr %8, align 8, !tbaa !13
  store i64 200, ptr %6, align 8, !tbaa !13
  %74 = getelementptr inbounds nuw %struct.OSSL_HPKE_SUITE, ptr %3, i32 0, i32 0
  store i16 32, ptr %74, align 2, !tbaa !24
  %75 = getelementptr inbounds nuw %struct.OSSL_HPKE_SUITE, ptr %3, i32 0, i32 2
  store i16 4660, ptr %75, align 2, !tbaa !27
  %76 = getelementptr inbounds [200 x i8], ptr %5, i64 0, i64 0
  %77 = getelementptr inbounds [500 x i8], ptr %7, i64 0, i64 0
  %78 = load i64, ptr %8, align 8, !tbaa !13
  %79 = load ptr, ptr @testctx, align 8, !tbaa !19
  %80 = call i32 @OSSL_HPKE_get_grease_value(ptr noundef %3, ptr noundef %4, ptr noundef %76, ptr noundef %6, ptr noundef %77, i64 noundef %78, ptr noundef %79, ptr noundef null)
  %81 = icmp ne i32 %80, 0
  %82 = zext i1 %81 to i32
  %83 = call i32 @test_false(ptr noundef @.str.31, i32 noundef 1700, ptr noundef @.str.193, i32 noundef %82)
  %84 = icmp ne i32 %83, 0
  br i1 %84, label %86, label %85

85:                                               ; preds = %73
  store i32 0, ptr %1, align 4
  store i32 1, ptr %9, align 4
  br label %117

86:                                               ; preds = %73
  store i64 200, ptr %6, align 8, !tbaa !13
  %87 = getelementptr inbounds nuw %struct.OSSL_HPKE_SUITE, ptr %2, i32 0, i32 2
  %88 = load i16, ptr %87, align 2, !tbaa !27
  %89 = getelementptr inbounds nuw %struct.OSSL_HPKE_SUITE, ptr %3, i32 0, i32 2
  store i16 %88, ptr %89, align 2, !tbaa !27
  %90 = getelementptr inbounds nuw %struct.OSSL_HPKE_SUITE, ptr %3, i32 0, i32 1
  store i16 13393, ptr %90, align 2, !tbaa !26
  %91 = getelementptr inbounds [200 x i8], ptr %5, i64 0, i64 0
  %92 = getelementptr inbounds [500 x i8], ptr %7, i64 0, i64 0
  %93 = load i64, ptr %8, align 8, !tbaa !13
  %94 = load ptr, ptr @testctx, align 8, !tbaa !19
  %95 = call i32 @OSSL_HPKE_get_grease_value(ptr noundef %3, ptr noundef %4, ptr noundef %91, ptr noundef %6, ptr noundef %92, i64 noundef %93, ptr noundef %94, ptr noundef null)
  %96 = icmp ne i32 %95, 0
  %97 = zext i1 %96 to i32
  %98 = call i32 @test_false(ptr noundef @.str.31, i32 noundef 1707, ptr noundef @.str.193, i32 noundef %97)
  %99 = icmp ne i32 %98, 0
  br i1 %99, label %101, label %100

100:                                              ; preds = %86
  store i32 0, ptr %1, align 4
  store i32 1, ptr %9, align 4
  br label %117

101:                                              ; preds = %86
  store i64 200, ptr %6, align 8, !tbaa !13
  %102 = getelementptr inbounds nuw %struct.OSSL_HPKE_SUITE, ptr %2, i32 0, i32 1
  %103 = load i16, ptr %102, align 2, !tbaa !26
  %104 = getelementptr inbounds nuw %struct.OSSL_HPKE_SUITE, ptr %3, i32 0, i32 1
  store i16 %103, ptr %104, align 2, !tbaa !26
  %105 = getelementptr inbounds nuw %struct.OSSL_HPKE_SUITE, ptr %3, i32 0, i32 0
  store i16 17687, ptr %105, align 2, !tbaa !24
  %106 = getelementptr inbounds [200 x i8], ptr %5, i64 0, i64 0
  %107 = getelementptr inbounds [500 x i8], ptr %7, i64 0, i64 0
  %108 = load i64, ptr %8, align 8, !tbaa !13
  %109 = load ptr, ptr @testctx, align 8, !tbaa !19
  %110 = call i32 @OSSL_HPKE_get_grease_value(ptr noundef %3, ptr noundef %4, ptr noundef %106, ptr noundef %6, ptr noundef %107, i64 noundef %108, ptr noundef %109, ptr noundef null)
  %111 = icmp ne i32 %110, 0
  %112 = zext i1 %111 to i32
  %113 = call i32 @test_false(ptr noundef @.str.31, i32 noundef 1714, ptr noundef @.str.193, i32 noundef %112)
  %114 = icmp ne i32 %113, 0
  br i1 %114, label %116, label %115

115:                                              ; preds = %101
  store i32 0, ptr %1, align 4
  store i32 1, ptr %9, align 4
  br label %117

116:                                              ; preds = %101
  store i32 1, ptr %1, align 4
  store i32 1, ptr %9, align 4
  br label %117

117:                                              ; preds = %116, %115, %100, %85, %72, %61, %49, %38, %27, %16
  call void @llvm.lifetime.end.p0(i64 8, ptr %8) #7
  call void @llvm.lifetime.end.p0(i64 500, ptr %7) #7
  call void @llvm.lifetime.end.p0(i64 8, ptr %6) #7
  call void @llvm.lifetime.end.p0(i64 200, ptr %5) #7
  call void @llvm.lifetime.end.p0(i64 6, ptr %4) #7
  call void @llvm.lifetime.end.p0(i64 6, ptr %3) #7
  call void @llvm.lifetime.end.p0(i64 6, ptr %2) #7
  %118 = load i32, ptr %1, align 4
  ret i32 %118
}