; Function Attrs: nounwind uwtable
define internal range(i32 0, 2) i32 @test_hpke_random_suites() #1 {
  %1 = alloca %struct.OSSL_HPKE_SUITE, align 2
  %2 = alloca %struct.OSSL_HPKE_SUITE, align 2
  %3 = alloca %struct.OSSL_HPKE_SUITE, align 2
  %4 = alloca [200 x i8], align 16
  %5 = alloca i64, align 8
  %6 = alloca [500 x i8], align 16
  call void @llvm.lifetime.start.p0(i64 6, ptr nonnull %1) #7
  call void @llvm.memcpy.p0.p0.i64(ptr noundef nonnull align 2 dereferenceable(6) %1, ptr noundef nonnull align 2 dereferenceable(6) @__const.test_hpke_random_suites.suite, i64 6, i1 false)
  call void @llvm.lifetime.start.p0(i64 6, ptr nonnull %2) #7
  call void @llvm.memcpy.p0.p0.i64(ptr noundef nonnull align 2 dereferenceable(6) %2, ptr noundef nonnull align 2 dereferenceable(6) @__const.test_hpke_random_suites.suite, i64 6, i1 false)
  call void @llvm.lifetime.start.p0(i64 6, ptr nonnull %3) #7
  call void @llvm.memcpy.p0.p0.i64(ptr noundef nonnull align 2 dereferenceable(6) %3, ptr noundef nonnull align 2 dereferenceable(6) @__const.test_hpke_random_suites.suite2, i64 6, i1 false)
  call void @llvm.lifetime.start.p0(i64 200, ptr nonnull %4) #7
  call void @llvm.lifetime.start.p0(i64 8, ptr nonnull %5) #7
  call void @llvm.lifetime.start.p0(i64 500, ptr nonnull %6) #7
  %7 = load ptr, ptr @testctx, align 8, !tbaa !13
  %8 = tail call i32 @OSSL_HPKE_get_grease_value(ptr noundef null, ptr noundef null, ptr noundef null, ptr noundef null, ptr noundef null, i64 noundef 0, ptr noundef %7, ptr noundef null) #7
  %9 = icmp ne i32 %8, 0
  %10 = zext i1 %9 to i32
  %11 = tail call i32 @test_false(ptr noundef nonnull @.str.31, i32 noundef 1658, ptr noundef nonnull @.str.190, i32 noundef %10) #7
  %.not = icmp eq i32 %11, 0
  br i1 %.not, label %66, label %12

12:                                               ; preds = %0
  store i64 10, ptr %5, align 8, !tbaa !11
  %13 = load ptr, ptr @testctx, align 8, !tbaa !13
  %14 = call i32 @OSSL_HPKE_get_grease_value(ptr noundef nonnull %1, ptr noundef nonnull %3, ptr noundef nonnull %4, ptr noundef nonnull %5, ptr noundef nonnull %6, i64 noundef 500, ptr noundef %13, ptr noundef null) #7
  %15 = icmp ne i32 %14, 0
  %16 = zext i1 %15 to i32
  %17 = call i32 @test_false(ptr noundef nonnull @.str.31, i32 noundef 1663, ptr noundef nonnull @.str.191, i32 noundef %16) #7
  %.not9 = icmp eq i32 %17, 0
  br i1 %.not9, label %66, label %18

18:                                               ; preds = %12
  store i64 200, ptr %5, align 8, !tbaa !11
  %19 = load ptr, ptr @testctx, align 8, !tbaa !13
  %20 = call i32 @OSSL_HPKE_get_grease_value(ptr noundef nonnull %1, ptr noundef nonnull %3, ptr noundef nonnull %4, ptr noundef nonnull %5, ptr noundef nonnull %6, i64 noundef 500, ptr noundef %19, ptr noundef null) #7
  %21 = icmp ne i32 %20, 0
  %22 = zext i1 %21 to i32
  %23 = call i32 @test_true(ptr noundef nonnull @.str.31, i32 noundef 1670, ptr noundef nonnull @.str.191, i32 noundef %22) #7
  %.not10 = icmp eq i32 %23, 0
  br i1 %.not10, label %66, label %24

24:                                               ; preds = %18
  store i64 200, ptr %5, align 8, !tbaa !11
  %25 = load ptr, ptr @testctx, align 8, !tbaa !13
  %26 = call i32 @OSSL_HPKE_get_grease_value(ptr noundef null, ptr noundef nonnull %3, ptr noundef nonnull %4, ptr noundef nonnull %5, ptr noundef nonnull %6, i64 noundef 500, ptr noundef %25, ptr noundef null) #7
  %27 = icmp ne i32 %26, 0
  %28 = zext i1 %27 to i32
  %29 = call i32 @test_true(ptr noundef nonnull @.str.31, i32 noundef 1677, ptr noundef nonnull @.str.192, i32 noundef %28) #7
  %.not11 = icmp eq i32 %29, 0
  br i1 %.not11, label %66, label %30

30:                                               ; preds = %24
  store i64 200, ptr %5, align 8, !tbaa !11
  store i16 18, ptr %2, align 2, !tbaa !30
  %31 = load ptr, ptr @testctx, align 8, !tbaa !13
  %32 = call i32 @OSSL_HPKE_get_grease_value(ptr noundef nonnull %2, ptr noundef nonnull %3, ptr noundef nonnull %4, ptr noundef nonnull %5, ptr noundef nonnull %6, i64 noundef 500, ptr noundef %31, ptr noundef null) #7
  %33 = icmp ne i32 %32, 0
  %34 = zext i1 %33 to i32
  %35 = call i32 @test_true(ptr noundef nonnull @.str.31, i32 noundef 1684, ptr noundef nonnull @.str.193, i32 noundef %34) #7
  %.not12 = icmp eq i32 %35, 0
  br i1 %.not12, label %66, label %36

36:                                               ; preds = %30
  store i64 200, ptr %5, align 8, !tbaa !11
  %37 = load ptr, ptr @testctx, align 8, !tbaa !13
  %38 = call i32 @OSSL_HPKE_get_grease_value(ptr noundef null, ptr noundef nonnull %3, ptr noundef nonnull %4, ptr noundef nonnull %5, ptr noundef nonnull %6, i64 noundef 2, ptr noundef %37, ptr noundef null) #7
  %39 = icmp ne i32 %38, 0
  %40 = zext i1 %39 to i32
  %41 = call i32 @test_false(ptr noundef nonnull @.str.31, i32 noundef 1690, ptr noundef nonnull @.str.192, i32 noundef %40) #7
  %.not13 = icmp eq i32 %41, 0
  br i1 %.not13, label %66, label %42

42:                                               ; preds = %36
  store i64 200, ptr %5, align 8, !tbaa !11
  store i16 32, ptr %2, align 2, !tbaa !30
  %43 = getelementptr inbounds nuw i8, ptr %2, i64 4
  store i16 4660, ptr %43, align 2, !tbaa !32
  %44 = load ptr, ptr @testctx, align 8, !tbaa !13
  %45 = call i32 @OSSL_HPKE_get_grease_value(ptr noundef nonnull %2, ptr noundef nonnull %3, ptr noundef nonnull %4, ptr noundef nonnull %5, ptr noundef nonnull %6, i64 noundef 500, ptr noundef %44, ptr noundef null) #7
  %46 = icmp ne i32 %45, 0
  %47 = zext i1 %46 to i32
  %48 = call i32 @test_false(ptr noundef nonnull @.str.31, i32 noundef 1700, ptr noundef nonnull @.str.193, i32 noundef %47) #7
  %.not14 = icmp eq i32 %48, 0
  br i1 %.not14, label %66, label %49

49:                                               ; preds = %42
  store i64 200, ptr %5, align 8, !tbaa !11
  %50 = getelementptr inbounds nuw i8, ptr %1, i64 4
  %51 = load i16, ptr %50, align 2, !tbaa !32
  store i16 %51, ptr %43, align 2, !tbaa !32
  %52 = getelementptr inbounds nuw i8, ptr %2, i64 2
  store i16 13393, ptr %52, align 2, !tbaa !33
  %53 = load ptr, ptr @testctx, align 8, !tbaa !13
  %54 = call i32 @OSSL_HPKE_get_grease_value(ptr noundef nonnull %2, ptr noundef nonnull %3, ptr noundef nonnull %4, ptr noundef nonnull %5, ptr noundef nonnull %6, i64 noundef 500, ptr noundef %53, ptr noundef null) #7
  %55 = icmp ne i32 %54, 0
  %56 = zext i1 %55 to i32
  %57 = call i32 @test_false(ptr noundef nonnull @.str.31, i32 noundef 1707, ptr noundef nonnull @.str.193, i32 noundef %56) #7
  %.not15 = icmp eq i32 %57, 0
  br i1 %.not15, label %66, label %58

58:                                               ; preds = %49
  store i64 200, ptr %5, align 8, !tbaa !11
  %59 = getelementptr inbounds nuw i8, ptr %1, i64 2
  %60 = load i16, ptr %59, align 2, !tbaa !33
  store i16 %60, ptr %52, align 2, !tbaa !33
  store i16 17687, ptr %2, align 2, !tbaa !30
  %61 = load ptr, ptr @testctx, align 8, !tbaa !13
  %62 = call i32 @OSSL_HPKE_get_grease_value(ptr noundef nonnull %2, ptr noundef nonnull %3, ptr noundef nonnull %4, ptr noundef nonnull %5, ptr noundef nonnull %6, i64 noundef 500, ptr noundef %61, ptr noundef null) #7
  %63 = icmp ne i32 %62, 0
  %64 = zext i1 %63 to i32
  %65 = call i32 @test_false(ptr noundef nonnull @.str.31, i32 noundef 1714, ptr noundef nonnull @.str.193, i32 noundef %64) #7
  %.not16 = icmp ne i32 %65, 0
  %. = zext i1 %.not16 to i32
  br label %66

66:                                               ; preds = %58, %49, %42, %36, %30, %24, %18, %12, %0
  %.0 = phi i32 [ 0, %0 ], [ 0, %12 ], [ 0, %18 ], [ 0, %24 ], [ 0, %30 ], [ 0, %36 ], [ 0, %42 ], [ 0, %49 ], [ %., %58 ]
  call void @llvm.lifetime.end.p0(i64 500, ptr nonnull %6) #7
  call void @llvm.lifetime.end.p0(i64 8, ptr nonnull %5) #7
  call void @llvm.lifetime.end.p0(i64 200, ptr nonnull %4) #7
  call void @llvm.lifetime.end.p0(i64 6, ptr nonnull %3) #7
  call void @llvm.lifetime.end.p0(i64 6, ptr nonnull %2) #7
  call void @llvm.lifetime.end.p0(i64 6, ptr nonnull %1) #7
  ret i32 %.0
}